target datalayout = "e-m:e-p270:32:32-p271:32:32-p272:64:64-i64:64-i128:128-f80:128-n8:16:32:64-S128"
target triple = "x86_64-pc-linux-gnu"

%struct.quic_sstream_st = type { %struct.ring_buf, %struct.ossl_list_st_uint_set, %struct.ossl_list_st_uint_set, i8 }
%struct.ring_buf = type { ptr, i64, i64, i64 }
%struct.ossl_list_st_uint_set = type { ptr, ptr, i64 }

; Function Attrs: nounwind uwtable
define i32 @ossl_quic_sstream_mark_acked_fin(ptr noundef %0) #0 {
  %2 = alloca i32, align 4
  %3 = alloca ptr, align 8
  store ptr %0, ptr %3, align 8, !tbaa !7
  %4 = load ptr, ptr %3, align 8, !tbaa !7
  %5 = getelementptr inbounds nuw %struct.quic_sstream_st, ptr %4, i32 0, i32 3
  %6 = load i8, ptr %5, align 8
  %7 = and i8 %6, 1
  %8 = zext i8 %7 to i32
  %9 = icmp ne i32 %8, 0
  br i1 %9, label %11, label %10

10:                                               ; preds = %1
  store i32 0, ptr %2, align 4
  br label %17

11:                                               ; preds = %1
  %12 = load ptr, ptr %3, align 8, !tbaa !7
  %13 = getelementptr inbounds nuw %struct.quic_sstream_st, ptr %12, i32 0, i32 3
  %14 = load i8, ptr %13, align 8
  %15 = and i8 %14, -5
  %16 = or i8 %15, 4
  store i8 %16, ptr %13, align 8
  store i32 1, ptr %2, align 4
  br label %17

17:                                               ; preds = %11, %10
  %18 = load i32, ptr %2, align 4
  ret i32 %18
}